; ModuleID = '55/1231.cpp'
source_filename = "55/1231.cpp"
target datalayout = "e-m:e-p270:32:32-p271:32:32-p272:64:64-i64:64-f80:128-n8:16:32:64-S128"
target triple = "x86_64-pc-linux-gnu"

%"class.std::ios_base::Init" = type { i8 }
%"class.std::basic_istream" = type { i32 (...)**, i64, %"class.std::basic_ios" }
%"class.std::basic_ios" = type { %"class.std::ios_base", %"class.std::basic_ostream"*, i8, i8, %"class.std::basic_streambuf"*, %"class.std::ctype"*, %"class.std::num_put"*, %"class.std::num_get"* }
%"class.std::ios_base" = type { i32 (...)**, i64, i64, i32, i32, i32, %"struct.std::ios_base::_Callback_list"*, %"struct.std::ios_base::_Words", [8 x %"struct.std::ios_base::_Words"], i32, %"struct.std::ios_base::_Words"*, %"class.std::locale" }
%"struct.std::ios_base::_Callback_list" = type { %"struct.std::ios_base::_Callback_list"*, void (i32, %"class.std::ios_base"*, i32)*, i32, i32 }
%"struct.std::ios_base::_Words" = type { i8*, i64 }
%"class.std::locale" = type { %"class.std::locale::_Impl"* }
%"class.std::locale::_Impl" = type { i32, %"class.std::locale::facet"**, i64, %"class.std::locale::facet"**, i8** }
%"class.std::locale::facet" = type <{ i32 (...)**, i32, [4 x i8] }>
%"class.std::basic_ostream" = type { i32 (...)**, %"class.std::basic_ios" }
%"class.std::basic_streambuf" = type { i32 (...)**, i8*, i8*, i8*, i8*, i8*, i8*, %"class.std::locale" }
%"class.std::ctype" = type <{ %"class.std::locale::facet.base", [4 x i8], %struct.__locale_struct*, i8, [7 x i8], i32*, i32*, i16*, i8, [256 x i8], [256 x i8], i8, [6 x i8] }>
%"class.std::locale::facet.base" = type <{ i32 (...)**, i32 }>
%struct.__locale_struct = type { [13 x %struct.__locale_data*], i16*, i32*, i32*, [13 x i8*] }
%struct.__locale_data = type opaque
%"class.std::num_put" = type { %"class.std::locale::facet.base", [4 x i8] }
%"class.std::num_get" = type { %"class.std::locale::facet.base", [4 x i8] }

@_ZStL8__ioinit = internal global %"class.std::ios_base::Init" zeroinitializer, align 1
@__dso_handle = external hidden global i8
@_ZSt3cin = external dso_local global %"class.std::basic_istream", align 8
@_ZSt4cout = external dso_local global %"class.std::basic_ostream", align 8
@llvm.global_ctors = appending global [1 x { i32, void ()*, i8* }] [{ i32, void ()*, i8* } { i32 65535, void ()* @_GLOBAL__sub_I_1231.cpp, i8* null }]

; Function Attrs: noinline uwtable
define internal void @__cxx_global_var_init() #0 section ".text.startup" {
  call void @_ZNSt8ios_base4InitC1Ev(%"class.std::ios_base::Init"* @_ZStL8__ioinit)
  %1 = call i32 @__cxa_atexit(void (i8*)* bitcast (void (%"class.std::ios_base::Init"*)* @_ZNSt8ios_base4InitD1Ev to void (i8*)*), i8* getelementptr inbounds (%"class.std::ios_base::Init", %"class.std::ios_base::Init"* @_ZStL8__ioinit, i32 0, i32 0), i8* @__dso_handle) #3
  ret void
}

declare dso_local void @_ZNSt8ios_base4InitC1Ev(%"class.std::ios_base::Init"*) unnamed_addr #1

; Function Attrs: nounwind
declare dso_local void @_ZNSt8ios_base4InitD1Ev(%"class.std::ios_base::Init"*) unnamed_addr #2

; Function Attrs: nounwind
declare dso_local i32 @__cxa_atexit(void (i8*)*, i8*, i8*) #3

; Function Attrs: noinline norecurse uwtable
define dso_local i32 @main() #4 {
  %1 = alloca i32, align 4
  %2 = alloca i32, align 4
  %3 = alloca i32, align 4
  %4 = alloca i32, align 4
  %5 = alloca i32, align 4
  %6 = alloca i32, align 4
  %7 = alloca i32, align 4
  %8 = alloca [20 x i8], align 16
  %9 = alloca [20 x i8], align 16
  store i32 0, i32* %1, align 4
  store i32 0, i32* %5, align 4
  store i32 0, i32* %7, align 4
  %10 = call dereferenceable(280) %"class.std::basic_istream"* @_ZNSirsERi(%"class.std::basic_istream"* @_ZSt3cin, i32* dereferenceable(4) %2)
  %11 = getelementptr inbounds [20 x i8], [20 x i8]* %8, i64 0, i64 0
  %12 = call dereferenceable(280) %"class.std::basic_istream"* @_ZStrsIcSt11char_traitsIcEERSt13basic_istreamIT_T0_ES6_PS3_(%"class.std::basic_istream"* dereferenceable(280) %10, i8* %11)
  %13 = call dereferenceable(280) %"class.std::basic_istream"* @_ZNSirsERi(%"class.std::basic_istream"* %12, i32* dereferenceable(4) %3)
  store i32 0, i32* %4, align 4
  br label %14

14:                                               ; preds = %44, %0
  %15 = load i32, i32* %4, align 4
  %16 = sext i32 %15 to i64
  %17 = getelementptr inbounds [20 x i8], [20 x i8]* %8, i64 0, i64 %16
  %18 = load i8, i8* %17, align 1
  %19 = sext i8 %18 to i32
  %20 = icmp ne i32 %19, 0
  br i1 %20, label %21, label %47

21:                                               ; preds = %14
  %22 = load i32, i32* %4, align 4
  %23 = sext i32 %22 to i64
  %24 = getelementptr inbounds [20 x i8], [20 x i8]* %8, i64 0, i64 %23
  %25 = load i8, i8* %24, align 1
  %26 = sext i8 %25 to i32
  %27 = icmp sge i32 %26, 97
  br i1 %27, label %28, label %43

28:                                               ; preds = %21
  %29 = load i32, i32* %4, align 4
  %30 = sext i32 %29 to i64
  %31 = getelementptr inbounds [20 x i8], [20 x i8]* %8, i64 0, i64 %30
  %32 = load i8, i8* %31, align 1
  %33 = sext i8 %32 to i32
  %34 = icmp sle i32 %33, 122
  br i1 %34, label %35, label %43

35:                                               ; preds = %28
  %36 = load i32, i32* %4, align 4
  %37 = sext i32 %36 to i64
  %38 = getelementptr inbounds [20 x i8], [20 x i8]* %8, i64 0, i64 %37
  %39 = load i8, i8* %38, align 1
  %40 = sext i8 %39 to i32
  %41 = sub nsw i32 %40, 32
  %42 = trunc i32 %41 to i8
  store i8 %42, i8* %38, align 1
  br label %43

43:                                               ; preds = %35, %28, %21
  br label %44

44:                                               ; preds = %43
  %45 = load i32, i32* %4, align 4
  %46 = add nsw i32 %45, 1
  store i32 %46, i32* %4, align 4
  br label %14

47:                                               ; preds = %14
  store i32 0, i32* %4, align 4
  br label %48

48:                                               ; preds = %90, %47
  %49 = load i32, i32* %4, align 4
  %50 = sext i32 %49 to i64
  %51 = getelementptr inbounds [20 x i8], [20 x i8]* %8, i64 0, i64 %50
  %52 = load i8, i8* %51, align 1
  %53 = sext i8 %52 to i32
  %54 = icmp ne i32 %53, 0
  br i1 %54, label %55, label %93

55:                                               ; preds = %48
  %56 = load i32, i32* %4, align 4
  %57 = sext i32 %56 to i64
  %58 = getelementptr inbounds [20 x i8], [20 x i8]* %8, i64 0, i64 %57
  %59 = load i8, i8* %58, align 1
  %60 = sext i8 %59 to i32
  %61 = icmp sge i32 %60, 48
  br i1 %61, label %62, label %76

62:                                               ; preds = %55
  %63 = load i32, i32* %4, align 4
  %64 = sext i32 %63 to i64
  %65 = getelementptr inbounds [20 x i8], [20 x i8]* %8, i64 0, i64 %64
  %66 = load i8, i8* %65, align 1
  %67 = sext i8 %66 to i32
  %68 = icmp sle i32 %67, 57
  br i1 %68, label %69, label %76

69:                                               ; preds = %62
  %70 = load i32, i32* %4, align 4
  %71 = sext i32 %70 to i64
  %72 = getelementptr inbounds [20 x i8], [20 x i8]* %8, i64 0, i64 %71
  %73 = load i8, i8* %72, align 1
  %74 = sext i8 %73 to i32
  %75 = sub nsw i32 %74, 48
  store i32 %75, i32* %6, align 4
  br label %84

76:                                               ; preds = %62, %55
  %77 = load i32, i32* %4, align 4
  %78 = sext i32 %77 to i64
  %79 = getelementptr inbounds [20 x i8], [20 x i8]* %8, i64 0, i64 %78
  %80 = load i8, i8* %79, align 1
  %81 = sext i8 %80 to i32
  %82 = sub nsw i32 %81, 65
  %83 = add nsw i32 %82, 10
  store i32 %83, i32* %6, align 4
  br label %84

84:                                               ; preds = %76, %69
  %85 = load i32, i32* %2, align 4
  %86 = load i32, i32* %7, align 4
  %87 = mul nsw i32 %85, %86
  %88 = load i32, i32* %6, align 4
  %89 = add nsw i32 %87, %88
  store i32 %89, i32* %7, align 4
  br label %90

90:                                               ; preds = %84
  %91 = load i32, i32* %4, align 4
  %92 = add nsw i32 %91, 1
  store i32 %92, i32* %4, align 4
  br label %48

93:                                               ; preds = %48
  br label %94

94:                                               ; preds = %122, %93
  %95 = load i32, i32* %7, align 4
  %96 = load i32, i32* %3, align 4
  %97 = icmp sge i32 %95, %96
  br i1 %97, label %98, label %128

98:                                               ; preds = %94
  %99 = load i32, i32* %7, align 4
  %100 = load i32, i32* %3, align 4
  %101 = srem i32 %99, %100
  %102 = icmp sge i32 %101, 10
  br i1 %102, label %103, label %113

103:                                              ; preds = %98
  %104 = load i32, i32* %7, align 4
  %105 = load i32, i32* %3, align 4
  %106 = srem i32 %104, %105
  %107 = sub nsw i32 %106, 10
  %108 = add nsw i32 %107, 65
  %109 = trunc i32 %108 to i8
  %110 = load i32, i32* %5, align 4
  %111 = sext i32 %110 to i64
  %112 = getelementptr inbounds [20 x i8], [20 x i8]* %9, i64 0, i64 %111
  store i8 %109, i8* %112, align 1
  br label %122

113:                                              ; preds = %98
  %114 = load i32, i32* %7, align 4
  %115 = load i32, i32* %3, align 4
  %116 = srem i32 %114, %115
  %117 = add nsw i32 %116, 48
  %118 = trunc i32 %117 to i8
  %119 = load i32, i32* %5, align 4
  %120 = sext i32 %119 to i64
  %121 = getelementptr inbounds [20 x i8], [20 x i8]* %9, i64 0, i64 %120
  store i8 %118, i8* %121, align 1
  br label %122

122:                                              ; preds = %113, %103
  %123 = load i32, i32* %7, align 4
  %124 = load i32, i32* %3, align 4
  %125 = sdiv i32 %123, %124
  store i32 %125, i32* %7, align 4
  %126 = load i32, i32* %5, align 4
  %127 = add nsw i32 %126, 1
  store i32 %127, i32* %5, align 4
  br label %94

128:                                              ; preds = %94
  %129 = load i32, i32* %7, align 4
  %130 = icmp sge i32 %129, 10
  br i1 %130, label %131, label %139

131:                                              ; preds = %128
  %132 = load i32, i32* %7, align 4
  %133 = sub nsw i32 %132, 10
  %134 = add nsw i32 %133, 65
  %135 = trunc i32 %134 to i8
  %136 = load i32, i32* %5, align 4
  %137 = sext i32 %136 to i64
  %138 = getelementptr inbounds [20 x i8], [20 x i8]* %9, i64 0, i64 %137
  store i8 %135, i8* %138, align 1
  br label %146

139:                                              ; preds = %128
  %140 = load i32, i32* %7, align 4
  %141 = add nsw i32 %140, 48
  %142 = trunc i32 %141 to i8
  %143 = load i32, i32* %5, align 4
  %144 = sext i32 %143 to i64
  %145 = getelementptr inbounds [20 x i8], [20 x i8]* %9, i64 0, i64 %144
  store i8 %142, i8* %145, align 1
  br label %146

146:                                              ; preds = %139, %131
  %147 = load i32, i32* %5, align 4
  store i32 %147, i32* %4, align 4
  br label %148

148:                                              ; preds = %157, %146
  %149 = load i32, i32* %4, align 4
  %150 = icmp sge i32 %149, 0
  br i1 %150, label %151, label %160

151:                                              ; preds = %148
  %152 = load i32, i32* %4, align 4
  %153 = sext i32 %152 to i64
  %154 = getelementptr inbounds [20 x i8], [20 x i8]* %9, i64 0, i64 %153
  %155 = load i8, i8* %154, align 1
  %156 = call dereferenceable(272) %"class.std::basic_ostream"* @_ZStlsISt11char_traitsIcEERSt13basic_ostreamIcT_ES5_c(%"class.std::basic_ostream"* dereferenceable(272) @_ZSt4cout, i8 signext %155)
  br label %157

157:                                              ; preds = %151
  %158 = load i32, i32* %4, align 4
  %159 = add nsw i32 %158, -1
  store i32 %159, i32* %4, align 4
  br label %148

160:                                              ; preds = %148
  ret i32 0
}

declare dso_local dereferenceable(280) %"class.std::basic_istream"* @_ZStrsIcSt11char_traitsIcEERSt13basic_istreamIT_T0_ES6_PS3_(%"class.std::basic_istream"* dereferenceable(280), i8*) #1

declare dso_local dereferenceable(280) %"class.std::basic_istream"* @_ZNSirsERi(%"class.std::basic_istream"*, i32* dereferenceable(4)) #1

declare dso_local dereferenceable(272) %"class.std::basic_ostream"* @_ZStlsISt11char_traitsIcEERSt13basic_ostreamIcT_ES5_c(%"class.std::basic_ostream"* dereferenceable(272), i8 signext) #1

; Function Attrs: noinline uwtable
define internal void @_GLOBAL__sub_I_1231.cpp() #0 section ".text.startup" {
  call void @__cxx_global_var_init()
  ret void
}


!llvm.module.flags = !{!0}
!llvm.ident = !{!1}

!0 = !{i32 1, !"wchar_size", i32 4}
!1 = !{!"clang version 10.0.0-4ubuntu1 "}
