; ModuleID = 'source-C-CXX/54/1231.cpp'
source_filename = "source-C-CXX/54/1231.cpp"
target datalayout = "e-m:e-p270:32:32-p271:32:32-p272:64:64-i64:64-f80:128-n8:16:32:64-S128"
target triple = "x86_64-pc-linux-gnu"

%"class.std::ios_base::Init" = type { i8 }
%"class.std::basic_istream" = type { i32 (...)**, i64, %"class.std::basic_ios" }
%"class.std::basic_ios" = type { %"class.std::ios_base", %"class.std::basic_ostream"*, i8, i8, %"class.std::basic_streambuf"*, %"class.std::ctype"*, %"class.std::num_put"*, %"class.std::num_get"* }
%"class.std::ios_base" = type { i32 (...)**, i64, i64, i32, i32, i32, %"struct.std::ios_base::_Callback_list"*, %"struct.std::ios_base::_Words", [8 x %"struct.std::ios_base::_Words"], i32, %"struct.std::ios_base::_Words"*, %"class.std::locale" }
%"struct.std::ios_base::_Callback_list" = type { %"struct.std::ios_base::_Callback_list"*, void (i32, %"class.std::ios_base"*, i32)*, i32, i32 }
%"struct.std::ios_base::_Words" = type { i8*, i64 }
%"class.std::locale" = type { %"class.std::locale::_Impl"* }
%"class.std::locale::_Impl" = type { i32, %"class.std::locale::facet"**, i64, %"class.std::locale::facet"**, i8** }
%"class.std::locale::facet" = type <{ i32 (...)**, i32, [4 x i8] }>
%"class.std::basic_ostream" = type { i32 (...)**, %"class.std::basic_ios" }
%"class.std::basic_streambuf" = type { i32 (...)**, i8*, i8*, i8*, i8*, i8*, i8*, %"class.std::locale" }
%"class.std::ctype" = type <{ %"class.std::locale::facet.base", [4 x i8], %struct.__locale_struct*, i8, [7 x i8], i32*, i32*, i16*, i8, [256 x i8], [256 x i8], i8, [6 x i8] }>
%"class.std::locale::facet.base" = type <{ i32 (...)**, i32 }>
%struct.__locale_struct = type { [13 x %struct.__locale_data*], i16*, i32*, i32*, [13 x i8*] }
%struct.__locale_data = type opaque
%"class.std::num_put" = type { %"class.std::locale::facet.base", [4 x i8] }
%"class.std::num_get" = type { %"class.std::locale::facet.base", [4 x i8] }

@_ZStL8__ioinit = internal global %"class.std::ios_base::Init" zeroinitializer, align 1
@__dso_handle = external hidden global i8
@_ZSt3cin = external global %"class.std::basic_istream", align 8
@_ZSt4cout = external global %"class.std::basic_ostream", align 8
@llvm.global_ctors = appending global [1 x { i32, void ()*, i8* }] [{ i32, void ()*, i8* } { i32 65535, void ()* @_GLOBAL__sub_I_1231.cpp, i8* null }]

declare void @_ZNSt8ios_base4InitC1Ev(%"class.std::ios_base::Init"* nonnull align 1 dereferenceable(1)) unnamed_addr #0

; Function Attrs: nounwind
declare void @_ZNSt8ios_base4InitD1Ev(%"class.std::ios_base::Init"* nonnull align 1 dereferenceable(1)) unnamed_addr #1

; Function Attrs: nofree nounwind
declare i32 @__cxa_atexit(void (i8*)*, i8*, i8*) local_unnamed_addr #2

; Function Attrs: mustprogress norecurse sspstrong uwtable
define dso_local i32 @main() local_unnamed_addr #3 {
  %1 = alloca i8, align 1
  %2 = alloca i32, align 4
  %3 = alloca i32, align 4
  %4 = alloca [20 x i8], align 16
  %5 = alloca [20 x i8], align 16
  %6 = bitcast i32* %2 to i8*
  call void @llvm.lifetime.start.p0i8(i64 4, i8* nonnull %6) #6
  %7 = bitcast i32* %3 to i8*
  call void @llvm.lifetime.start.p0i8(i64 4, i8* nonnull %7) #6
  %8 = getelementptr inbounds [20 x i8], [20 x i8]* %4, i64 0, i64 0
  call void @llvm.lifetime.start.p0i8(i64 20, i8* nonnull %8) #6
  %9 = getelementptr inbounds [20 x i8], [20 x i8]* %5, i64 0, i64 0
  call void @llvm.lifetime.start.p0i8(i64 20, i8* nonnull %9) #6
  %10 = call nonnull align 8 dereferenceable(16) %"class.std::basic_istream"* @_ZNSirsERi(%"class.std::basic_istream"* nonnull align 8 dereferenceable(16) @_ZSt3cin, i32* nonnull align 4 dereferenceable(4) %2)
  call void @_ZSt17__istream_extractRSiPcl(%"class.std::basic_istream"* nonnull align 8 dereferenceable(16) %10, i8* nonnull %8, i64 20)
  %11 = call nonnull align 8 dereferenceable(16) %"class.std::basic_istream"* @_ZNSirsERi(%"class.std::basic_istream"* nonnull align 8 dereferenceable(16) %10, i32* nonnull align 4 dereferenceable(4) %3)
  %12 = load i8, i8* %8, align 16, !tbaa !5
  %13 = icmp eq i8 %12, 0
  br i1 %13, label %31, label %18

14:                                               ; preds = %26
  %15 = load i8, i8* %8, align 16, !tbaa !5
  %16 = load i32, i32* %2, align 4
  %17 = icmp eq i8 %15, 0
  br i1 %17, label %31, label %35

18:                                               ; preds = %0, %26
  %19 = phi i64 [ %27, %26 ], [ 0, %0 ]
  %20 = phi i8 [ %29, %26 ], [ %12, %0 ]
  %21 = phi i8* [ %28, %26 ], [ %8, %0 ]
  %22 = add i8 %20, -97
  %23 = icmp ult i8 %22, 26
  br i1 %23, label %24, label %26

24:                                               ; preds = %18
  %25 = add nsw i8 %20, -32
  store i8 %25, i8* %21, align 1, !tbaa !5
  br label %26

26:                                               ; preds = %18, %24
  %27 = add nuw i64 %19, 1
  %28 = getelementptr inbounds [20 x i8], [20 x i8]* %4, i64 0, i64 %27
  %29 = load i8, i8* %28, align 1, !tbaa !5
  %30 = icmp eq i8 %29, 0
  br i1 %30, label %14, label %18, !llvm.loop !8

31:                                               ; preds = %35, %0, %14
  %32 = phi i32 [ 0, %14 ], [ 0, %0 ], [ %45, %35 ]
  %33 = load i32, i32* %3, align 4, !tbaa !10
  %34 = icmp slt i32 %32, %33
  br i1 %34, label %64, label %50

35:                                               ; preds = %14, %35
  %36 = phi i64 [ %46, %35 ], [ 0, %14 ]
  %37 = phi i8 [ %48, %35 ], [ %15, %14 ]
  %38 = phi i32 [ %45, %35 ], [ 0, %14 ]
  %39 = sext i8 %37 to i32
  %40 = add i8 %37, -48
  %41 = icmp ult i8 %40, 10
  %42 = select i1 %41, i32 -48, i32 -55
  %43 = add nsw i32 %42, %39
  %44 = mul nsw i32 %16, %38
  %45 = add nsw i32 %43, %44
  %46 = add nuw nsw i64 %36, 1
  %47 = getelementptr inbounds [20 x i8], [20 x i8]* %4, i64 0, i64 %46
  %48 = load i8, i8* %47, align 1, !tbaa !5
  %49 = icmp eq i8 %48, 0
  br i1 %49, label %31, label %35, !llvm.loop !12

50:                                               ; preds = %31, %50
  %51 = phi i64 [ %60, %50 ], [ 0, %31 ]
  %52 = phi i32 [ %59, %50 ], [ %32, %31 ]
  %53 = srem i32 %52, %33
  %54 = icmp sgt i32 %53, 9
  %55 = trunc i32 %53 to i8
  %56 = select i1 %54, i8 55, i8 48
  %57 = add i8 %56, %55
  %58 = getelementptr inbounds [20 x i8], [20 x i8]* %5, i64 0, i64 %51
  store i8 %57, i8* %58, align 1
  %59 = sdiv i32 %52, %33
  %60 = add nuw i64 %51, 1
  %61 = icmp slt i32 %59, %33
  br i1 %61, label %62, label %50, !llvm.loop !13

62:                                               ; preds = %50
  %63 = trunc i64 %60 to i32
  br label %64

64:                                               ; preds = %62, %31
  %65 = phi i32 [ 0, %31 ], [ %63, %62 ]
  %66 = phi i32 [ %32, %31 ], [ %59, %62 ]
  %67 = icmp sgt i32 %66, 9
  %68 = trunc i32 %66 to i8
  %69 = select i1 %67, i8 55, i8 48
  %70 = add i8 %69, %68
  %71 = zext i32 %65 to i64
  %72 = getelementptr inbounds [20 x i8], [20 x i8]* %5, i64 0, i64 %71
  store i8 %70, i8* %72, align 1, !tbaa !5
  %73 = icmp sgt i32 %65, -1
  br i1 %73, label %74, label %83

74:                                               ; preds = %64
  %75 = zext i32 %65 to i64
  br label %76

76:                                               ; preds = %74, %76
  %77 = phi i64 [ %75, %74 ], [ %82, %76 ]
  %78 = getelementptr inbounds [20 x i8], [20 x i8]* %5, i64 0, i64 %77
  %79 = load i8, i8* %78, align 1, !tbaa !5
  call void @llvm.lifetime.start.p0i8(i64 1, i8* nonnull %1)
  store i8 %79, i8* %1, align 1, !tbaa !5
  %80 = call nonnull align 8 dereferenceable(8) %"class.std::basic_ostream"* @_ZSt16__ostream_insertIcSt11char_traitsIcEERSt13basic_ostreamIT_T0_ES6_PKS3_l(%"class.std::basic_ostream"* nonnull align 8 dereferenceable(8) @_ZSt4cout, i8* nonnull %1, i64 1)
  call void @llvm.lifetime.end.p0i8(i64 1, i8* nonnull %1)
  %81 = icmp sgt i64 %77, 0
  %82 = add nsw i64 %77, -1
  br i1 %81, label %76, label %83, !llvm.loop !14

83:                                               ; preds = %76, %64
  call void @llvm.lifetime.end.p0i8(i64 20, i8* nonnull %9) #6
  call void @llvm.lifetime.end.p0i8(i64 20, i8* nonnull %8) #6
  call void @llvm.lifetime.end.p0i8(i64 4, i8* nonnull %7) #6
  call void @llvm.lifetime.end.p0i8(i64 4, i8* nonnull %6) #6
  ret i32 0
}

; Function Attrs: argmemonly mustprogress nofree nosync nounwind willreturn
declare void @llvm.lifetime.start.p0i8(i64 immarg, i8* nocapture) #4

declare nonnull align 8 dereferenceable(16) %"class.std::basic_istream"* @_ZNSirsERi(%"class.std::basic_istream"* nonnull align 8 dereferenceable(16), i32* nonnull align 4 dereferenceable(4)) local_unnamed_addr #0

; Function Attrs: argmemonly mustprogress nofree nosync nounwind willreturn
declare void @llvm.lifetime.end.p0i8(i64 immarg, i8* nocapture) #4

declare void @_ZSt17__istream_extractRSiPcl(%"class.std::basic_istream"* nonnull align 8 dereferenceable(16), i8*, i64) local_unnamed_addr #0

declare nonnull align 8 dereferenceable(8) %"class.std::basic_ostream"* @_ZSt16__ostream_insertIcSt11char_traitsIcEERSt13basic_ostreamIT_T0_ES6_PKS3_l(%"class.std::basic_ostream"* nonnull align 8 dereferenceable(8), i8*, i64) local_unnamed_addr #0

; Function Attrs: sspstrong uwtable
define internal void @_GLOBAL__sub_I_1231.cpp() #5 section ".text.startup" {
  tail call void @_ZNSt8ios_base4InitC1Ev(%"class.std::ios_base::Init"* nonnull align 1 dereferenceable(1) @_ZStL8__ioinit)
  %1 = tail call i32 @__cxa_atexit(void (i8*)* bitcast (void (%"class.std::ios_base::Init"*)* @_ZNSt8ios_base4InitD1Ev to void (i8*)*), i8* getelementptr inbounds (%"class.std::ios_base::Init", %"class.std::ios_base::Init"* @_ZStL8__ioinit, i64 0, i32 0), i8* nonnull @__dso_handle) #6
  ret void
}


!llvm.module.flags = !{!0, !1, !2, !3}
!llvm.ident = !{!4}

!0 = !{i32 1, !"wchar_size", i32 4}
!1 = !{i32 7, !"PIC Level", i32 2}
!2 = !{i32 7, !"PIE Level", i32 2}
!3 = !{i32 7, !"uwtable", i32 1}
!4 = !{!"clang version 13.0.0"}
!5 = !{!6, !6, i64 0}
!6 = !{!"omnipotent char", !7, i64 0}
!7 = !{!"Simple C++ TBAA"}
!8 = distinct !{!8, !9}
!9 = !{!"llvm.loop.mustprogress"}
!10 = !{!11, !11, i64 0}
!11 = !{!"int", !6, i64 0}
!12 = distinct !{!12, !9}
!13 = distinct !{!13, !9}
!14 = distinct !{!14, !9}
